target datalayout = "e-m:e-p270:32:32-p271:32:32-p272:64:64-i64:64-i128:128-f80:128-n8:16:32:64-S128"
target triple = "x86_64-pc-linux-gnu"

%class.Sample = type { ptr, ptr, ptr, ptr, ptr, i8, float, float, float, float, float, float, float, float, float, float, float, float, float, i32, i8, i8, i8, ptr, [9 x ptr], ptr, %class.SampleDebugDraw }
%class.SampleDebugDraw = type { %class.DebugDrawGL }
%class.DebugDrawGL = type { %struct.duDebugDraw }
%struct.duDebugDraw = type { ptr }
%class.Sample_TempObstacles = type <{ %class.Sample, i8, [7 x i8], ptr, ptr, ptr, ptr, float, i32, i32, i32, i32, i32, i32, i32, float, [4 x i8] }>

@.str.33 = private unnamed_addr constant [5 x i8] c"Draw\00", align 1
@.str.34 = private unnamed_addr constant [11 x i8] c"Input Mesh\00", align 1
@.str.35 = private unnamed_addr constant [8 x i8] c"Navmesh\00", align 1
@.str.36 = private unnamed_addr constant [14 x i8] c"Navmesh Invis\00", align 1
@.str.37 = private unnamed_addr constant [14 x i8] c"Navmesh Trans\00", align 1
@.str.38 = private unnamed_addr constant [15 x i8] c"Navmesh BVTree\00", align 1
@.str.39 = private unnamed_addr constant [14 x i8] c"Navmesh Nodes\00", align 1
@.str.40 = private unnamed_addr constant [16 x i8] c"Navmesh Portals\00", align 1
@.str.41 = private unnamed_addr constant [13 x i8] c"Cache Bounds\00", align 1
@.str.42 = private unnamed_addr constant [32 x i8] c"Tick 'Keep Itermediate Results'\00", align 1
@.str.43 = private unnamed_addr constant [26 x i8] c"rebuild some tiles to see\00", align 1
@.str.44 = private unnamed_addr constant [25 x i8] c"more debug mode options.\00", align 1

; Function Attrs: mustprogress uwtable
define dso_local void @_ZN20Sample_TempObstacles15handleDebugModeEv(ptr noundef nonnull align 8 dereferenceable(276) %0) unnamed_addr #5 align 2 {
  %2 = alloca ptr, align 8
  %3 = alloca [8 x i8], align 1
  %4 = alloca i32, align 4
  %5 = alloca i32, align 4
  %6 = alloca i32, align 4
  store ptr %0, ptr %2, align 8
  %7 = load ptr, ptr %2, align 8
  store i32 0, ptr %4, align 4
  br label %8

8:                                                ; preds = %15, %1
  %9 = load i32, ptr %4, align 4
  %10 = icmp slt i32 %9, 8
  br i1 %10, label %11, label %18

11:                                               ; preds = %8
  %12 = load i32, ptr %4, align 4
  %13 = sext i32 %12 to i64
  %14 = getelementptr inbounds [8 x i8], ptr %3, i64 0, i64 %13
  store i8 0, ptr %14, align 1
  br label %15

15:                                               ; preds = %11
  %16 = load i32, ptr %4, align 4
  %17 = add nsw i32 %16, 1
  store i32 %17, ptr %4, align 4
  br label %8, !llvm.loop !21

18:                                               ; preds = %8
  %19 = getelementptr inbounds %class.Sample, ptr %7, i32 0, i32 1
  %20 = load ptr, ptr %19, align 8
  %21 = icmp ne ptr %20, null
  br i1 %21, label %22, label %55

22:                                               ; preds = %18
  %23 = getelementptr inbounds %class.Sample, ptr %7, i32 0, i32 2
  %24 = load ptr, ptr %23, align 8
  %25 = icmp ne ptr %24, null
  %26 = getelementptr inbounds [8 x i8], ptr %3, i64 0, i64 0
  %27 = zext i1 %25 to i8
  store i8 %27, ptr %26, align 1
  %28 = getelementptr inbounds %class.Sample, ptr %7, i32 0, i32 2
  %29 = load ptr, ptr %28, align 8
  %30 = icmp ne ptr %29, null
  %31 = getelementptr inbounds [8 x i8], ptr %3, i64 0, i64 1
  %32 = zext i1 %30 to i8
  store i8 %32, ptr %31, align 1
  %33 = getelementptr inbounds %class.Sample, ptr %7, i32 0, i32 2
  %34 = load ptr, ptr %33, align 8
  %35 = icmp ne ptr %34, null
  %36 = getelementptr inbounds [8 x i8], ptr %3, i64 0, i64 2
  %37 = zext i1 %35 to i8
  store i8 %37, ptr %36, align 1
  %38 = getelementptr inbounds %class.Sample, ptr %7, i32 0, i32 3
  %39 = load ptr, ptr %38, align 8
  %40 = icmp ne ptr %39, null
  %41 = getelementptr inbounds [8 x i8], ptr %3, i64 0, i64 3
  %42 = zext i1 %40 to i8
  store i8 %42, ptr %41, align 1
  %43 = getelementptr inbounds %class.Sample, ptr %7, i32 0, i32 2
  %44 = load ptr, ptr %43, align 8
  %45 = icmp ne ptr %44, null
  %46 = getelementptr inbounds [8 x i8], ptr %3, i64 0, i64 4
  %47 = zext i1 %45 to i8
  store i8 %47, ptr %46, align 1
  %48 = getelementptr inbounds %class.Sample, ptr %7, i32 0, i32 2
  %49 = load ptr, ptr %48, align 8
  %50 = icmp ne ptr %49, null
  %51 = getelementptr inbounds [8 x i8], ptr %3, i64 0, i64 5
  %52 = zext i1 %50 to i8
  store i8 %52, ptr %51, align 1
  %53 = getelementptr inbounds [8 x i8], ptr %3, i64 0, i64 6
  store i8 1, ptr %53, align 1
  %54 = getelementptr inbounds [8 x i8], ptr %3, i64 0, i64 7
  store i8 1, ptr %54, align 1
  br label %55

55:                                               ; preds = %22, %18
  store i32 0, ptr %5, align 4
  store i32 0, ptr %6, align 4
  br label %56

56:                                               ; preds = %69, %55
  %57 = load i32, ptr %6, align 4
  %58 = icmp slt i32 %57, 8
  br i1 %58, label %59, label %72

59:                                               ; preds = %56
  %60 = load i32, ptr %6, align 4
  %61 = sext i32 %60 to i64
  %62 = getelementptr inbounds [8 x i8], ptr %3, i64 0, i64 %61
  %63 = load i8, ptr %62, align 1
  %64 = trunc i8 %63 to i1
  br i1 %64, label %68, label %65

65:                                               ; preds = %59
  %66 = load i32, ptr %5, align 4
  %67 = add nsw i32 %66, 1
  store i32 %67, ptr %5, align 4
  br label %68

68:                                               ; preds = %65, %59
  br label %69

69:                                               ; preds = %68
  %70 = load i32, ptr %6, align 4
  %71 = add nsw i32 %70, 1
  store i32 %71, ptr %6, align 4
  br label %56, !llvm.loop !22

72:                                               ; preds = %56
  %73 = load i32, ptr %5, align 4
  %74 = icmp eq i32 %73, 8
  br i1 %74, label %75, label %76

75:                                               ; preds = %72
  br label %160

76:                                               ; preds = %72
  call void @_Z10imguiLabelPKc(ptr noundef @.str.33)
  %77 = getelementptr inbounds %class.Sample_TempObstacles, ptr %7, i32 0, i32 12
  %78 = load i32, ptr %77, align 4
  %79 = icmp eq i32 %78, 6
  %80 = getelementptr inbounds [8 x i8], ptr %3, i64 0, i64 6
  %81 = load i8, ptr %80, align 1
  %82 = trunc i8 %81 to i1
  %83 = call noundef zeroext i1 @_Z10imguiCheckPKcbb(ptr noundef @.str.34, i1 noundef zeroext %79, i1 noundef zeroext %82)
  br i1 %83, label %84, label %86

84:                                               ; preds = %76
  %85 = getelementptr inbounds %class.Sample_TempObstacles, ptr %7, i32 0, i32 12
  store i32 6, ptr %85, align 4
  br label %86

86:                                               ; preds = %84, %76
  %87 = getelementptr inbounds %class.Sample_TempObstacles, ptr %7, i32 0, i32 12
  %88 = load i32, ptr %87, align 4
  %89 = icmp eq i32 %88, 0
  %90 = getelementptr inbounds [8 x i8], ptr %3, i64 0, i64 0
  %91 = load i8, ptr %90, align 1
  %92 = trunc i8 %91 to i1
  %93 = call noundef zeroext i1 @_Z10imguiCheckPKcbb(ptr noundef @.str.35, i1 noundef zeroext %89, i1 noundef zeroext %92)
  br i1 %93, label %94, label %96

94:                                               ; preds = %86
  %95 = getelementptr inbounds %class.Sample_TempObstacles, ptr %7, i32 0, i32 12
  store i32 0, ptr %95, align 4
  br label %96

96:                                               ; preds = %94, %86
  %97 = getelementptr inbounds %class.Sample_TempObstacles, ptr %7, i32 0, i32 12
  %98 = load i32, ptr %97, align 4
  %99 = icmp eq i32 %98, 5
  %100 = getelementptr inbounds [8 x i8], ptr %3, i64 0, i64 5
  %101 = load i8, ptr %100, align 1
  %102 = trunc i8 %101 to i1
  %103 = call noundef zeroext i1 @_Z10imguiCheckPKcbb(ptr noundef @.str.36, i1 noundef zeroext %99, i1 noundef zeroext %102)
  br i1 %103, label %104, label %106

104:                                              ; preds = %96
  %105 = getelementptr inbounds %class.Sample_TempObstacles, ptr %7, i32 0, i32 12
  store i32 5, ptr %105, align 4
  br label %106

106:                                              ; preds = %104, %96
  %107 = getelementptr inbounds %class.Sample_TempObstacles, ptr %7, i32 0, i32 12
  %108 = load i32, ptr %107, align 4
  %109 = icmp eq i32 %108, 1
  %110 = getelementptr inbounds [8 x i8], ptr %3, i64 0, i64 1
  %111 = load i8, ptr %110, align 1
  %112 = trunc i8 %111 to i1
  %113 = call noundef zeroext i1 @_Z10imguiCheckPKcbb(ptr noundef @.str.37, i1 noundef zeroext %109, i1 noundef zeroext %112)
  br i1 %113, label %114, label %116

114:                                              ; preds = %106
  %115 = getelementptr inbounds %class.Sample_TempObstacles, ptr %7, i32 0, i32 12
  store i32 1, ptr %115, align 4
  br label %116

116:                                              ; preds = %114, %106
  %117 = getelementptr inbounds %class.Sample_TempObstacles, ptr %7, i32 0, i32 12
  %118 = load i32, ptr %117, align 4
  %119 = icmp eq i32 %118, 2
  %120 = getelementptr inbounds [8 x i8], ptr %3, i64 0, i64 2
  %121 = load i8, ptr %120, align 1
  %122 = trunc i8 %121 to i1
  %123 = call noundef zeroext i1 @_Z10imguiCheckPKcbb(ptr noundef @.str.38, i1 noundef zeroext %119, i1 noundef zeroext %122)
  br i1 %123, label %124, label %126

124:                                              ; preds = %116
  %125 = getelementptr inbounds %class.Sample_TempObstacles, ptr %7, i32 0, i32 12
  store i32 2, ptr %125, align 4
  br label %126

126:                                              ; preds = %124, %116
  %127 = getelementptr inbounds %class.Sample_TempObstacles, ptr %7, i32 0, i32 12
  %128 = load i32, ptr %127, align 4
  %129 = icmp eq i32 %128, 3
  %130 = getelementptr inbounds [8 x i8], ptr %3, i64 0, i64 3
  %131 = load i8, ptr %130, align 1
  %132 = trunc i8 %131 to i1
  %133 = call noundef zeroext i1 @_Z10imguiCheckPKcbb(ptr noundef @.str.39, i1 noundef zeroext %129, i1 noundef zeroext %132)
  br i1 %133, label %134, label %136

134:                                              ; preds = %126
  %135 = getelementptr inbounds %class.Sample_TempObstacles, ptr %7, i32 0, i32 12
  store i32 3, ptr %135, align 4
  br label %136

136:                                              ; preds = %134, %126
  %137 = getelementptr inbounds %class.Sample_TempObstacles, ptr %7, i32 0, i32 12
  %138 = load i32, ptr %137, align 4
  %139 = icmp eq i32 %138, 4
  %140 = getelementptr inbounds [8 x i8], ptr %3, i64 0, i64 4
  %141 = load i8, ptr %140, align 1
  %142 = trunc i8 %141 to i1
  %143 = call noundef zeroext i1 @_Z10imguiCheckPKcbb(ptr noundef @.str.40, i1 noundef zeroext %139, i1 noundef zeroext %142)
  br i1 %143, label %144, label %146

144:                                              ; preds = %136
  %145 = getelementptr inbounds %class.Sample_TempObstacles, ptr %7, i32 0, i32 12
  store i32 4, ptr %145, align 4
  br label %146

146:                                              ; preds = %144, %136
  %147 = getelementptr inbounds %class.Sample_TempObstacles, ptr %7, i32 0, i32 12
  %148 = load i32, ptr %147, align 4
  %149 = icmp eq i32 %148, 7
  %150 = getelementptr inbounds [8 x i8], ptr %3, i64 0, i64 7
  %151 = load i8, ptr %150, align 1
  %152 = trunc i8 %151 to i1
  %153 = call noundef zeroext i1 @_Z10imguiCheckPKcbb(ptr noundef @.str.41, i1 noundef zeroext %149, i1 noundef zeroext %152)
  br i1 %153, label %154, label %156

154:                                              ; preds = %146
  %155 = getelementptr inbounds %class.Sample_TempObstacles, ptr %7, i32 0, i32 12
  store i32 7, ptr %155, align 4
  br label %156

156:                                              ; preds = %154, %146
  %157 = load i32, ptr %5, align 4
  %158 = icmp ne i32 %157, 0
  br i1 %158, label %159, label %160

159:                                              ; preds = %156
  call void @_Z10imguiValuePKc(ptr noundef @.str.42)
  call void @_Z10imguiValuePKc(ptr noundef @.str.43)
  call void @_Z10imguiValuePKc(ptr noundef @.str.44)
  br label %160

160:                                              ; preds = %159, %156, %75
  ret void
}