; Function Attrs: mustprogress uwtable
define dso_local void @_ZN20Sample_TempObstacles15handleDebugModeEv(ptr nocapture noundef nonnull align 8 dereferenceable(276) %0) unnamed_addr #5 align 2 {
  %2 = alloca [8 x i8], align 8
  store i64 0, ptr %2, align 8
  %3 = getelementptr inbounds i8, ptr %0, i64 8
  %4 = load ptr, ptr %3, align 8
  %.not = icmp ne ptr %4, null
  br i1 %.not, label %5, label %21

5:                                                ; preds = %1
  %6 = getelementptr inbounds i8, ptr %0, i64 16
  %7 = load ptr, ptr %6, align 8
  %8 = icmp ne ptr %7, null
  %9 = zext i1 %8 to i8
  store i8 %9, ptr %2, align 8
  %10 = getelementptr inbounds i8, ptr %2, i64 1
  store i8 %9, ptr %10, align 1
  %11 = getelementptr inbounds i8, ptr %2, i64 2
  store i8 %9, ptr %11, align 2
  %12 = getelementptr inbounds i8, ptr %0, i64 24
  %13 = load ptr, ptr %12, align 8
  %14 = icmp ne ptr %13, null
  %15 = getelementptr inbounds i8, ptr %2, i64 3
  %16 = zext i1 %14 to i8
  store i8 %16, ptr %15, align 1
  %17 = getelementptr inbounds i8, ptr %2, i64 4
  store i8 %9, ptr %17, align 4
  %18 = getelementptr inbounds i8, ptr %2, i64 5
  store i8 %9, ptr %18, align 1
  %19 = getelementptr inbounds i8, ptr %2, i64 6
  store i8 1, ptr %19, align 2
  %20 = getelementptr inbounds i8, ptr %2, i64 7
  store i8 1, ptr %20, align 1
  br label %21

21:                                               ; preds = %5, %1
  %22 = phi i1 [ %14, %5 ], [ false, %1 ]
  %23 = phi i1 [ %8, %5 ], [ false, %1 ]
  br label %24

24:                                               ; preds = %21, %24
  %indvars.iv = phi i64 [ 0, %21 ], [ %indvars.iv.next, %24 ]
  %.0914 = phi i32 [ 0, %21 ], [ %spec.select, %24 ]
  %25 = getelementptr inbounds [8 x i8], ptr %2, i64 0, i64 %indvars.iv
  %26 = load i8, ptr %25, align 1
  %27 = and i8 %26, 1
  %28 = xor i8 %27, 1
  %29 = zext nneg i8 %28 to i32
  %spec.select = add i32 %.0914, %29
  %indvars.iv.next = add nuw nsw i64 %indvars.iv, 1
  %exitcond.not = icmp eq i64 %indvars.iv.next, 8
  br i1 %exitcond.not, label %30, label %24, !llvm.loop !21

30:                                               ; preds = %24
  %31 = icmp eq i32 %spec.select, 8
  br i1 %31, label %75, label %32

32:                                               ; preds = %30
  tail call void @_Z10imguiLabelPKc(ptr noundef nonnull @.str.33)
  %33 = getelementptr inbounds i8, ptr %0, i64 260
  %34 = load i32, ptr %33, align 4
  %35 = icmp eq i32 %34, 6
  %36 = tail call noundef zeroext i1 @_Z10imguiCheckPKcbb(ptr noundef nonnull @.str.34, i1 noundef zeroext %35, i1 noundef zeroext %.not)
  br i1 %36, label %38, label %._crit_edge

._crit_edge:                                      ; preds = %32
  %.pre = load i32, ptr %33, align 4
  %37 = icmp eq i32 %.pre, 0
  br label %39

38:                                               ; preds = %32
  store i32 6, ptr %33, align 4
  br label %39

39:                                               ; preds = %._crit_edge, %38
  %40 = phi i1 [ %37, %._crit_edge ], [ false, %38 ]
  %41 = tail call noundef zeroext i1 @_Z10imguiCheckPKcbb(ptr noundef nonnull @.str.35, i1 noundef zeroext %40, i1 noundef zeroext %23)
  br i1 %41, label %43, label %._crit_edge18

._crit_edge18:                                    ; preds = %39
  %.pre19 = load i32, ptr %33, align 4
  %42 = icmp eq i32 %.pre19, 5
  br label %44

43:                                               ; preds = %39
  store i32 0, ptr %33, align 4
  br label %44

44:                                               ; preds = %._crit_edge18, %43
  %45 = phi i1 [ %42, %._crit_edge18 ], [ false, %43 ]
  %46 = tail call noundef zeroext i1 @_Z10imguiCheckPKcbb(ptr noundef nonnull @.str.36, i1 noundef zeroext %45, i1 noundef zeroext %23)
  br i1 %46, label %48, label %._crit_edge20

._crit_edge20:                                    ; preds = %44
  %.pre21 = load i32, ptr %33, align 4
  %47 = icmp eq i32 %.pre21, 1
  br label %49

48:                                               ; preds = %44
  store i32 5, ptr %33, align 4
  br label %49

49:                                               ; preds = %._crit_edge20, %48
  %50 = phi i1 [ %47, %._crit_edge20 ], [ false, %48 ]
  %51 = tail call noundef zeroext i1 @_Z10imguiCheckPKcbb(ptr noundef nonnull @.str.37, i1 noundef zeroext %50, i1 noundef zeroext %23)
  br i1 %51, label %53, label %._crit_edge22

._crit_edge22:                                    ; preds = %49
  %.pre23 = load i32, ptr %33, align 4
  %52 = icmp eq i32 %.pre23, 2
  br label %54

53:                                               ; preds = %49
  store i32 1, ptr %33, align 4
  br label %54

54:                                               ; preds = %._crit_edge22, %53
  %55 = phi i1 [ %52, %._crit_edge22 ], [ false, %53 ]
  %56 = tail call noundef zeroext i1 @_Z10imguiCheckPKcbb(ptr noundef nonnull @.str.38, i1 noundef zeroext %55, i1 noundef zeroext %23)
  br i1 %56, label %58, label %._crit_edge24

._crit_edge24:                                    ; preds = %54
  %.pre25 = load i32, ptr %33, align 4
  %57 = icmp eq i32 %.pre25, 3
  br label %59

58:                                               ; preds = %54
  store i32 2, ptr %33, align 4
  br label %59

59:                                               ; preds = %._crit_edge24, %58
  %60 = phi i1 [ %57, %._crit_edge24 ], [ false, %58 ]
  %61 = tail call noundef zeroext i1 @_Z10imguiCheckPKcbb(ptr noundef nonnull @.str.39, i1 noundef zeroext %60, i1 noundef zeroext %22)
  br i1 %61, label %63, label %._crit_edge26

._crit_edge26:                                    ; preds = %59
  %.pre27 = load i32, ptr %33, align 4
  %62 = icmp eq i32 %.pre27, 4
  br label %64

63:                                               ; preds = %59
  store i32 3, ptr %33, align 4
  br label %64

64:                                               ; preds = %._crit_edge26, %63
  %65 = phi i1 [ %62, %._crit_edge26 ], [ false, %63 ]
  %66 = tail call noundef zeroext i1 @_Z10imguiCheckPKcbb(ptr noundef nonnull @.str.40, i1 noundef zeroext %65, i1 noundef zeroext %23)
  br i1 %66, label %68, label %._crit_edge28

._crit_edge28:                                    ; preds = %64
  %.pre29 = load i32, ptr %33, align 4
  %67 = icmp eq i32 %.pre29, 7
  br label %69

68:                                               ; preds = %64
  store i32 4, ptr %33, align 4
  br label %69

69:                                               ; preds = %._crit_edge28, %68
  %70 = phi i1 [ %67, %._crit_edge28 ], [ false, %68 ]
  %71 = tail call noundef zeroext i1 @_Z10imguiCheckPKcbb(ptr noundef nonnull @.str.41, i1 noundef zeroext %70, i1 noundef zeroext %.not)
  br i1 %71, label %72, label %73

72:                                               ; preds = %69
  store i32 7, ptr %33, align 4
  br label %73

73:                                               ; preds = %72, %69
  %.not11 = icmp eq i32 %spec.select, 0
  br i1 %.not11, label %75, label %74

74:                                               ; preds = %73
  tail call void @_Z10imguiValuePKc(ptr noundef nonnull @.str.42)
  tail call void @_Z10imguiValuePKc(ptr noundef nonnull @.str.43)
  tail call void @_Z10imguiValuePKc(ptr noundef nonnull @.str.44)
  br label %75

75:                                               ; preds = %30, %74, %73
  ret void
}